; Function Attrs: mustprogress nofree norecurse nosync nounwind memory(readwrite, inaccessiblemem: none) uwtable
define internal void @_ZL17evaluate_atomtypeRKN3gmx20SelMethodEvalContextEP15gmx_ana_index_tP18gmx_ana_selvalue_tPv(ptr noundef nonnull readonly align 8 captures(none) dereferenceable(24) %0, ptr noundef readonly captures(none) %1, ptr noundef captures(none) initializes((4, 8)) %2, ptr readnone captures(none) %3) #3 {
  %5 = load i32, ptr %1, align 8, !tbaa !7
  %6 = getelementptr inbounds nuw i8, ptr %2, i64 4
  store i32 %5, ptr %6, align 4, !tbaa !12
  %7 = icmp sgt i32 %5, 0
  br i1 %7, label %.lr.ph, label %._crit_edge

.lr.ph:                                           ; preds = %4
  %8 = load ptr, ptr %0, align 8, !tbaa !19
  %9 = getelementptr inbounds nuw i8, ptr %1, i64 8
  %10 = load ptr, ptr %9, align 8, !tbaa !15
  %11 = getelementptr inbounds nuw i8, ptr %8, i64 136
  %12 = getelementptr inbounds nuw i8, ptr %8, i64 144
  %13 = load ptr, ptr %12, align 8, !tbaa !24
  %14 = load ptr, ptr %11, align 8, !tbaa !27
  %15 = ptrtoint ptr %13 to i64
  %16 = ptrtoint ptr %14 to i64
  %17 = sub i64 %15, %16
  %18 = sdiv exact i64 %17, 56
  %19 = trunc i64 %18 to i32
  %20 = getelementptr inbounds nuw i8, ptr %8, i64 736
  %21 = load ptr, ptr %20, align 8, !tbaa !28
  %22 = getelementptr inbounds nuw i8, ptr %8, i64 112
  %23 = load ptr, ptr %22, align 8, !tbaa !31
  %24 = getelementptr inbounds nuw i8, ptr %2, i64 8
  %wide.trip.count = zext nneg i32 %5 to i64
  br label %25

._crit_edge:                                      ; preds = %_ZL20mtopGetMolblockIndexRK10gmx_mtop_tiPiS2_S2_.exit, %4
  ret void

25:                                               ; preds = %.lr.ph, %_ZL20mtopGetMolblockIndexRK10gmx_mtop_tiPiS2_S2_.exit
  %indvars.iv = phi i64 [ 0, %.lr.ph ], [ %indvars.iv.next, %_ZL20mtopGetMolblockIndexRK10gmx_mtop_tiPiS2_S2_.exit ]
  %.01517 = phi i32 [ 0, %.lr.ph ], [ %.1, %_ZL20mtopGetMolblockIndexRK10gmx_mtop_tiPiS2_S2_.exit ]
  %26 = getelementptr inbounds nuw i32, ptr %10, i64 %indvars.iv
  %27 = load i32, ptr %26, align 4, !tbaa !16
  br label %28

28:                                               ; preds = %37, %25
  %.1 = phi i32 [ %.01517, %25 ], [ %40, %37 ]
  %.026.i = phi i32 [ %19, %25 ], [ %.127.i, %37 ]
  %.0.i = phi i32 [ -1, %25 ], [ %.1.i, %37 ]
  %29 = sext i32 %.1 to i64
  %30 = getelementptr inbounds nuw %struct.MoleculeBlockIndices, ptr %21, i64 %29
  %31 = getelementptr inbounds nuw i8, ptr %30, i64 4
  %32 = load i32, ptr %31, align 4, !tbaa !34
  %33 = icmp slt i32 %27, %32
  br i1 %33, label %37, label %34

34:                                               ; preds = %28
  %35 = getelementptr inbounds nuw i8, ptr %30, i64 8
  %36 = load i32, ptr %35, align 4, !tbaa !36
  %.not.i = icmp slt i32 %27, %36
  br i1 %.not.i, label %_ZL20mtopGetMolblockIndexRK10gmx_mtop_tiPiS2_S2_.exit, label %37

37:                                               ; preds = %34, %28
  %.127.i = phi i32 [ %.1, %28 ], [ %.026.i, %34 ]
  %.1.i = phi i32 [ %.0.i, %28 ], [ %.1, %34 ]
  %38 = add i32 %.127.i, 1
  %39 = add i32 %38, %.1.i
  %40 = ashr i32 %39, 1
  br label %28, !llvm.loop !37

_ZL20mtopGetMolblockIndexRK10gmx_mtop_tiPiS2_S2_.exit: ; preds = %34
  %41 = sub nsw i32 %27, %32
  %.fr = freeze i32 %41
  %42 = load i32, ptr %30, align 4, !tbaa !38
  %43 = srem i32 %.fr, %42
  %44 = getelementptr inbounds nuw %struct.gmx_molblock_t, ptr %14, i64 %29
  %45 = load i32, ptr %44, align 8, !tbaa !39
  %46 = sext i32 %45 to i64
  %47 = getelementptr inbounds nuw %struct.gmx_moltype_t, ptr %23, i64 %46, i32 1, i32 3
  %48 = load ptr, ptr %47, align 8, !tbaa !162
  %49 = sext i32 %43 to i64
  %50 = getelementptr inbounds ptr, ptr %48, i64 %49
  %51 = load ptr, ptr %50, align 8, !tbaa !154
  %52 = load ptr, ptr %51, align 8, !tbaa !118
  %53 = load ptr, ptr %24, align 8, !tbaa !4
  %54 = getelementptr inbounds nuw ptr, ptr %53, i64 %indvars.iv
  store ptr %52, ptr %54, align 8, !tbaa !118
  %indvars.iv.next = add nuw nsw i64 %indvars.iv, 1
  %exitcond.not = icmp eq i64 %indvars.iv.next, %wide.trip.count
  br i1 %exitcond.not, label %._crit_edge, label %25, !llvm.loop !163
}